target datalayout = "e-m:e-p270:32:32-p271:32:32-p272:64:64-i64:64-i128:128-f80:128-n8:16:32:64-S128"
target triple = "x86_64-pc-linux-gnu"

%struct.timeval = type { i64, i64 }
%struct._logentry = type { i32, i8, i16, i64, %struct.timeval, i32, [0 x %union.anon] }
%union.anon = type { i8 }
%struct.logentry_item_store = type { i32, i32, i32, i8, i8, i32, i32, [0 x i8] }

@.str.30 = private unnamed_addr constant [3 x i8] c"na\00", align 1
@__const._logger_parse_ise.status_map = private unnamed_addr constant [6 x ptr] [ptr @.str.31, ptr @.str.32, ptr @.str.33, ptr @.str.25, ptr @.str.34, ptr @.str.35], align 16
@__const._logger_parse_ise.cmd_map = private unnamed_addr constant [9 x ptr] [ptr @.str.36, ptr @.str.37, ptr @.str.38, ptr @.str.39, ptr @.str.40, ptr @.str.41, ptr @.str.42, ptr @.str.40, ptr @.str.41], align 16
@.str.43 = private unnamed_addr constant [92 x i8] c"ts=%lld.%d gid=%llu type=item_store key=%s status=%s cmd=%s ttl=%u clsid=%u cfd=%d size=%d\0A\00", align 1

; Function Attrs: nounwind uwtable
define internal i32 @_logger_parse_ise(ptr noundef %0, ptr noundef %1) #0 {
  %3 = alloca ptr, align 8
  %4 = alloca ptr, align 8
  %5 = alloca i32, align 4
  %6 = alloca ptr, align 8
  %7 = alloca [751 x i8], align 16
  %8 = alloca ptr, align 8
  %9 = alloca [6 x ptr], align 16
  %10 = alloca [9 x ptr], align 16
  store ptr %0, ptr %3, align 8, !tbaa !33
  store ptr %1, ptr %4, align 8, !tbaa !63
  call void @llvm.lifetime.start.p0(i64 4, ptr %5) #11
  call void @llvm.lifetime.start.p0(i64 8, ptr %6) #11
  store ptr @.str.30, ptr %6, align 8, !tbaa !63
  call void @llvm.lifetime.start.p0(i64 751, ptr %7) #11
  call void @llvm.lifetime.start.p0(i64 8, ptr %8) #11
  %11 = load ptr, ptr %3, align 8, !tbaa !33
  %12 = getelementptr inbounds nuw %struct._logentry, ptr %11, i32 0, i32 6
  %13 = getelementptr inbounds [0 x %union.anon], ptr %12, i64 0, i64 0
  store ptr %13, ptr %8, align 8, !tbaa !118
  call void @llvm.lifetime.start.p0(i64 48, ptr %9) #11
  call void @llvm.memcpy.p0.p0.i64(ptr align 16 %9, ptr align 16 @__const._logger_parse_ise.status_map, i64 48, i1 false)
  call void @llvm.lifetime.start.p0(i64 72, ptr %10) #11
  call void @llvm.memcpy.p0.p0.i64(ptr align 16 %10, ptr align 16 @__const._logger_parse_ise.cmd_map, i64 72, i1 false)
  %14 = load ptr, ptr %8, align 8, !tbaa !118
  %15 = getelementptr inbounds nuw %struct.logentry_item_store, ptr %14, i32 0, i32 1
  %16 = load i32, ptr %15, align 4, !tbaa !11
  %17 = icmp sle i32 %16, 8
  br i1 %17, label %18, label %25

18:                                               ; preds = %2
  %19 = load ptr, ptr %8, align 8, !tbaa !118
  %20 = getelementptr inbounds nuw %struct.logentry_item_store, ptr %19, i32 0, i32 1
  %21 = load i32, ptr %20, align 4, !tbaa !11
  %22 = sext i32 %21 to i64
  %23 = getelementptr inbounds [9 x ptr], ptr %10, i64 0, i64 %22
  %24 = load ptr, ptr %23, align 8, !tbaa !63
  store ptr %24, ptr %6, align 8, !tbaa !63
  br label %25

25:                                               ; preds = %18, %2
  %26 = load ptr, ptr %8, align 8, !tbaa !118
  %27 = getelementptr inbounds nuw %struct.logentry_item_store, ptr %26, i32 0, i32 7
  %28 = getelementptr inbounds [0 x i8], ptr %27, i64 0, i64 0
  %29 = getelementptr inbounds [751 x i8], ptr %7, i64 0, i64 0
  %30 = load ptr, ptr %8, align 8, !tbaa !118
  %31 = getelementptr inbounds nuw %struct.logentry_item_store, ptr %30, i32 0, i32 3
  %32 = load i8, ptr %31, align 4, !tbaa !36
  %33 = zext i8 %32 to i64
  %34 = call zeroext i1 @uriencode(ptr noundef %28, ptr noundef %29, i64 noundef %33, i64 noundef 751)
  %35 = load ptr, ptr %4, align 8, !tbaa !63
  %36 = load ptr, ptr %3, align 8, !tbaa !33
  %37 = getelementptr inbounds nuw %struct._logentry, ptr %36, i32 0, i32 4
  %38 = getelementptr inbounds nuw %struct.timeval, ptr %37, i32 0, i32 0
  %39 = load i64, ptr %38, align 8, !tbaa !108
  %40 = load ptr, ptr %3, align 8, !tbaa !33
  %41 = getelementptr inbounds nuw %struct._logentry, ptr %40, i32 0, i32 4
  %42 = getelementptr inbounds nuw %struct.timeval, ptr %41, i32 0, i32 1
  %43 = load i64, ptr %42, align 8, !tbaa !109
  %44 = trunc i64 %43 to i32
  %45 = load ptr, ptr %3, align 8, !tbaa !33
  %46 = getelementptr inbounds nuw %struct._logentry, ptr %45, i32 0, i32 3
  %47 = load i64, ptr %46, align 8, !tbaa !4
  %48 = getelementptr inbounds [751 x i8], ptr %7, i64 0, i64 0
  %49 = load ptr, ptr %8, align 8, !tbaa !118
  %50 = getelementptr inbounds nuw %struct.logentry_item_store, ptr %49, i32 0, i32 0
  %51 = load i32, ptr %50, align 4, !tbaa !11
  %52 = sext i32 %51 to i64
  %53 = getelementptr inbounds [6 x ptr], ptr %9, i64 0, i64 %52
  %54 = load ptr, ptr %53, align 8, !tbaa !63
  %55 = load ptr, ptr %6, align 8, !tbaa !63
  %56 = load ptr, ptr %8, align 8, !tbaa !118
  %57 = getelementptr inbounds nuw %struct.logentry_item_store, ptr %56, i32 0, i32 2
  %58 = load i32, ptr %57, align 4, !tbaa !11
  %59 = load ptr, ptr %8, align 8, !tbaa !118
  %60 = getelementptr inbounds nuw %struct.logentry_item_store, ptr %59, i32 0, i32 4
  %61 = load i8, ptr %60, align 1, !tbaa !36
  %62 = zext i8 %61 to i32
  %63 = load ptr, ptr %8, align 8, !tbaa !118
  %64 = getelementptr inbounds nuw %struct.logentry_item_store, ptr %63, i32 0, i32 6
  %65 = load i32, ptr %64, align 4, !tbaa !11
  %66 = load ptr, ptr %8, align 8, !tbaa !118
  %67 = getelementptr inbounds nuw %struct.logentry_item_store, ptr %66, i32 0, i32 5
  %68 = load i32, ptr %67, align 4, !tbaa !11
  %69 = icmp sgt i32 %68, 0
  br i1 %69, label %70, label %75

70:                                               ; preds = %25
  %71 = load ptr, ptr %8, align 8, !tbaa !118
  %72 = getelementptr inbounds nuw %struct.logentry_item_store, ptr %71, i32 0, i32 5
  %73 = load i32, ptr %72, align 4, !tbaa !11
  %74 = sub nsw i32 %73, 2
  br label %76

75:                                               ; preds = %25
  br label %76

76:                                               ; preds = %75, %70
  %77 = phi i32 [ %74, %70 ], [ 0, %75 ]
  %78 = call i32 (ptr, i64, ptr, ...) @snprintf(ptr noundef %35, i64 noundef 4096, ptr noundef @.str.43, i64 noundef %39, i32 noundef %44, i64 noundef %47, ptr noundef %48, ptr noundef %54, ptr noundef %55, i32 noundef %58, i32 noundef %62, i32 noundef %65, i32 noundef %77) #11
  store i32 %78, ptr %5, align 4, !tbaa !11
  %79 = load i32, ptr %5, align 4, !tbaa !11
  call void @llvm.lifetime.end.p0(i64 72, ptr %10) #11
  call void @llvm.lifetime.end.p0(i64 48, ptr %9) #11
  call void @llvm.lifetime.end.p0(i64 8, ptr %8) #11
  call void @llvm.lifetime.end.p0(i64 751, ptr %7) #11
  call void @llvm.lifetime.end.p0(i64 8, ptr %6) #11
  call void @llvm.lifetime.end.p0(i64 4, ptr %5) #11
  ret i32 %79
}