; Function Attrs: nounwind uwtable
define internal noundef i32 @_logger_parse_ise(ptr noundef %0, ptr noundef writeonly captures(none) %1) #1 {
  %3 = alloca [751 x i8], align 16
  call void @llvm.lifetime.start.p0(i64 751, ptr nonnull %3) #18
  %4 = getelementptr inbounds nuw i8, ptr %0, i64 40
  %5 = load i32, ptr %4, align 4, !tbaa !9
  %6 = icmp slt i32 %5, 9
  br i1 %6, label %7, label %11

7:                                                ; preds = %2
  %8 = sext i32 %5 to i64
  %9 = getelementptr inbounds [9 x ptr], ptr @__const._logger_parse_ise.cmd_map, i64 0, i64 %8
  %10 = load ptr, ptr %9, align 8, !tbaa !95
  br label %11

11:                                               ; preds = %7, %2
  %.0 = phi ptr [ %10, %7 ], [ @.str.30, %2 ]
  %12 = getelementptr inbounds nuw i8, ptr %0, i64 36
  %13 = getelementptr inbounds nuw i8, ptr %0, i64 60
  %14 = getelementptr inbounds nuw i8, ptr %0, i64 48
  %15 = load i8, ptr %14, align 4, !tbaa !31
  %16 = zext i8 %15 to i64
  %17 = call zeroext i1 @uriencode(ptr noundef nonnull %13, ptr noundef nonnull %3, i64 noundef %16, i64 noundef 751) #18
  %18 = getelementptr inbounds nuw i8, ptr %0, i64 16
  %19 = load i64, ptr %18, align 8, !tbaa !91
  %20 = getelementptr inbounds nuw i8, ptr %0, i64 24
  %21 = load i64, ptr %20, align 8, !tbaa !92
  %22 = getelementptr inbounds nuw i8, ptr %0, i64 8
  %23 = load i64, ptr %22, align 8, !tbaa !13
  %24 = load i32, ptr %12, align 4, !tbaa !9
  %25 = sext i32 %24 to i64
  %26 = getelementptr inbounds [6 x ptr], ptr @__const._logger_parse_ise.status_map, i64 0, i64 %25
  %27 = load ptr, ptr %26, align 8, !tbaa !95
  %28 = getelementptr inbounds nuw i8, ptr %0, i64 44
  %29 = load i32, ptr %28, align 4, !tbaa !9
  %30 = getelementptr inbounds nuw i8, ptr %0, i64 49
  %31 = load i8, ptr %30, align 1, !tbaa !31
  %32 = getelementptr inbounds nuw i8, ptr %0, i64 56
  %33 = load i32, ptr %32, align 4, !tbaa !9
  %34 = getelementptr inbounds nuw i8, ptr %0, i64 52
  %35 = load i32, ptr %34, align 4, !tbaa !9
  %36 = icmp sgt i32 %35, 0
  %37 = add nsw i32 %35, -2
  %spec.select = select i1 %36, i32 %37, i32 0
  %38 = zext i8 %31 to i32
  %39 = trunc i64 %21 to i32
  %40 = call i32 (ptr, i64, ptr, ...) @snprintf(ptr noundef nonnull dereferenceable(1) %1, i64 noundef 4096, ptr noundef nonnull @.str.43, i64 noundef %19, i32 noundef %39, i64 noundef %23, ptr noundef nonnull %3, ptr noundef %27, ptr noundef %.0, i32 noundef %29, i32 noundef %38, i32 noundef %33, i32 noundef %spec.select) #18
  call void @llvm.lifetime.end.p0(i64 751, ptr nonnull %3) #18
  ret i32 %40
}